# SymbolsHelper-Confirmed: 14.04ubuntu1 amd64
libKubuntu.so.0 libkubuntu0 #MINVER#
 _ZN7Kubuntu11BusyOverlay11eventFilterEP7QObjectP6QEvent@Base 14.04ubuntu1
 _ZN7Kubuntu11BusyOverlay11qt_metacallEN11QMetaObject4CallEiPPv@Base 14.04ubuntu1
 _ZN7Kubuntu11BusyOverlay11qt_metacastEPKc@Base 14.04ubuntu1
 _ZN7Kubuntu11BusyOverlay11setProgressEi@Base 14.04ubuntu1
 _ZN7Kubuntu11BusyOverlay16staticMetaObjectE@Base 14.04ubuntu1
 _ZN7Kubuntu11BusyOverlay9throwAwayEv@Base 14.04ubuntu1
 _ZN7Kubuntu11BusyOverlayC1EP7QWidgetS2_@Base 14.04ubuntu1
 _ZN7Kubuntu11BusyOverlayC2EP7QWidgetS2_@Base 14.04ubuntu1
 _ZN7Kubuntu11BusyOverlayD0Ev@Base 14.04ubuntu1
 _ZN7Kubuntu11BusyOverlayD1Ev@Base 14.04ubuntu1
 _ZN7Kubuntu11BusyOverlayD2Ev@Base 14.04ubuntu1
 _ZN7Kubuntu18LanguageCollection11qt_metacallEN11QMetaObject4CallEiPPv@Base 14.04ubuntu1
 _ZN7Kubuntu18LanguageCollection11qt_metacastEPKc@Base 14.04ubuntu1
 _ZN7Kubuntu18LanguageCollection14updateProgressEi@Base 14.04ubuntu1
 _ZN7Kubuntu18LanguageCollection16staticMetaObjectE@Base 14.04ubuntu1
 _ZN7Kubuntu18LanguageCollection6updateEv@Base 14.04ubuntu1
 _ZN7Kubuntu18LanguageCollection7updatedEv@Base 14.04ubuntu1
 _ZN7Kubuntu18LanguageCollection9isUpdatedEv@Base 14.04ubuntu1
 _ZN7Kubuntu18LanguageCollection9languagesEv@Base 14.04ubuntu1
 _ZN7Kubuntu18LanguageCollectionC1EP7QObject@Base 14.04ubuntu1
 _ZN7Kubuntu18LanguageCollectionC2EP7QObject@Base 14.04ubuntu1
 _ZN7Kubuntu18LanguageCollectionD0Ev@Base 14.04ubuntu1
 _ZN7Kubuntu18LanguageCollectionD1Ev@Base 14.04ubuntu1
 _ZN7Kubuntu18LanguageCollectionD2Ev@Base 14.04ubuntu1
 _ZN7Kubuntu6Locale11writeToFileERK7QString@Base 14.04ubuntu1
 _ZN7Kubuntu6LocaleC1ERK5QListI7QStringERKS2_@Base 14.04ubuntu1
 _ZN7Kubuntu6LocaleC1ERK5QListIPNS_8LanguageEERK7QString@Base 14.04ubuntu1
 _ZN7Kubuntu6LocaleC1Ev@Base 14.04ubuntu1
 _ZN7Kubuntu6LocaleC2ERK5QListI7QStringERKS2_@Base 14.04ubuntu1
 _ZN7Kubuntu6LocaleC2ERK5QListIPNS_8LanguageEERK7QString@Base 14.04ubuntu1
 _ZN7Kubuntu6LocaleC2Ev@Base 14.04ubuntu1
 _ZN7Kubuntu6LocaleD1Ev@Base 14.04ubuntu1
 _ZN7Kubuntu6LocaleD2Ev@Base 14.04ubuntu1
 _ZN7Kubuntu8Language11qt_metacallEN11QMetaObject4CallEiPPv@Base 14.04ubuntu1
 _ZN7Kubuntu8Language11qt_metacastEPKc@Base 14.04ubuntu1
 _ZN7Kubuntu8Language15completeSupportEv@Base 14.04ubuntu1
 _ZN7Kubuntu8Language15supportCompleteEv@Base 14.04ubuntu1
 _ZN7Kubuntu8Language16staticMetaObjectE@Base 14.04ubuntu1
 _ZN7Kubuntu8Language17isSupportCompleteEv@Base 14.04ubuntu1
 _ZN7Kubuntu8Language23supportCompletionFailedEv@Base 14.04ubuntu1
 _ZN7Kubuntu8Language24kdeCodeForKdePackageCodeERK7QString@Base 14.04ubuntu1
 _ZN7Kubuntu8Language24kdePackageCodeForKdeCodeERK7QString@Base 14.04ubuntu1
 _ZN7Kubuntu8Language25supportCompletionProgressEi@Base 14.04ubuntu1
 _ZN7Kubuntu8Language27ubuntuPackageCodeForKdeCodeERK7QString@Base 14.04ubuntu1
 _ZN7Kubuntu8LanguageC1E7QStringP7QObject@Base 14.04ubuntu1
 _ZN7Kubuntu8LanguageC1EP7QObject@Base 14.04ubuntu1
 _ZN7Kubuntu8LanguageC2E7QStringP7QObject@Base 14.04ubuntu1
 _ZN7Kubuntu8LanguageC2EP7QObject@Base 14.04ubuntu1
 _ZN7Kubuntu8LanguageD0Ev@Base 14.04ubuntu1
 _ZN7Kubuntu8LanguageD1Ev@Base 14.04ubuntu1
 _ZN7Kubuntu8LanguageD2Ev@Base 14.04ubuntu1
 _ZNK7Kubuntu11BusyOverlay10metaObjectEv@Base 14.04ubuntu1
 _ZNK7Kubuntu18LanguageCollection10metaObjectEv@Base 14.04ubuntu1
 _ZNK7Kubuntu6Locale15systemLanguagesEv@Base 14.04ubuntu1
 _ZNK7Kubuntu6Locale18systemLocaleStringEv@Base 14.04ubuntu1
 _ZNK7Kubuntu6Locale21systemLanguagesStringEv@Base 14.04ubuntu1
 _ZNK7Kubuntu8Language10metaObjectEv@Base 14.04ubuntu1
 _ZNK7Kubuntu8Language14kdePackageCodeEv@Base 14.04ubuntu1
 _ZNK7Kubuntu8Language17ubuntuPackageCodeEv@Base 14.04ubuntu1
 _ZNK7Kubuntu8Language18systemLanguageCodeEv@Base 14.04ubuntu1
 _ZNK7Kubuntu8Language7kdeCodeEv@Base 14.04ubuntu1
 _ZTIN7Kubuntu11BusyOverlayE@Base 14.04ubuntu1
 _ZTIN7Kubuntu18LanguageCollectionE@Base 14.04ubuntu1
 _ZTIN7Kubuntu8LanguageE@Base 14.04ubuntu1
 _ZTSN7Kubuntu11BusyOverlayE@Base 14.04ubuntu1
 _ZTSN7Kubuntu18LanguageCollectionE@Base 14.04ubuntu1
 _ZTSN7Kubuntu8LanguageE@Base 14.04ubuntu1
 _ZTVN7Kubuntu11BusyOverlayE@Base 14.04ubuntu1
 _ZTVN7Kubuntu18LanguageCollectionE@Base 14.04ubuntu1
 _ZTVN7Kubuntu8LanguageE@Base 14.04ubuntu1
 (c++)"non-virtual thunk to Kubuntu::BusyOverlay::~BusyOverlay()@Base" 14.04ubuntu1
